target datalayout = "e-m:e-p270:32:32-p271:32:32-p272:64:64-i64:64-i128:128-f80:128-n8:16:32:64-S128"
target triple = "x86_64-pc-linux-gnu"

%struct.ggml_tensor = type { i32, ptr, [4 x i64], [4 x i64], i32, [16 x i32], i32, [10 x ptr], ptr, i64, ptr, [64 x i8], ptr, [8 x i8] }

@.str.12 = private unnamed_addr constant [113 x i8] c"generated/home/dtcxzyw/WorkSpace/Projects/compilers/llvm-opt-benchmark/bench/llama.cpp/llama.cpp/ggml/src/ggml.c\00", align 1
@.str.13 = private unnamed_addr constant [23 x i8] c"GGML_ASSERT(%s) failed\00", align 1
@.str.90 = private unnamed_addr constant [25 x i8] c"a->type == GGML_TYPE_F32\00", align 1
@.str.463 = private unnamed_addr constant [118 x i8] c"generated/home/dtcxzyw/WorkSpace/Projects/compilers/llvm-opt-benchmark/bench/llama.cpp/llama.cpp/ggml/src/ggml-impl.h\00", align 1
@.str.464 = private unnamed_addr constant [15 x i8] c"tensor != NULL\00", align 1

; Function Attrs: nounwind uwtable
define internal void @ggml_set_op_params(ptr noundef %0, ptr noundef %1, i64 noundef %2) #5 {
  %4 = alloca ptr, align 8
  %5 = alloca ptr, align 8
  %6 = alloca i64, align 8
  store ptr %0, ptr %4, align 8, !tbaa !54
  store ptr %1, ptr %5, align 8, !tbaa !18
  store i64 %2, ptr %6, align 8, !tbaa !19
  %7 = load ptr, ptr %4, align 8, !tbaa !54
  %8 = icmp ne ptr %7, null
  br i1 %8, label %10, label %9

9:                                                ; preds = %3
  call void (ptr, i32, ptr, ...) @ggml_abort(ptr noundef @.str.463, i32 noundef 112, ptr noundef @.str.13, ptr noundef @.str.464) #18
  unreachable

10:                                               ; preds = %3
  %11 = load ptr, ptr %4, align 8, !tbaa !54
  %12 = getelementptr inbounds nuw %struct.ggml_tensor, ptr %11, i32 0, i32 5
  %13 = getelementptr inbounds [16 x i32], ptr %12, i64 0, i64 0
  %14 = load ptr, ptr %5, align 8, !tbaa !18
  %15 = load i64, ptr %6, align 8, !tbaa !19
  call void @llvm.memcpy.p0.p0.i64(ptr align 4 %13, ptr align 1 %14, i64 %15, i1 false)
  ret void
}

; Function Attrs: nounwind uwtable
define ptr @ggml_new_tensor(ptr noundef %0, i32 noundef %1, i32 noundef %2, ptr noundef %3) #5 {
  %5 = alloca ptr, align 8
  %6 = alloca i32, align 4
  %7 = alloca i32, align 4
  %8 = alloca ptr, align 8
  store ptr %0, ptr %5, align 8, !tbaa !48
  store i32 %1, ptr %6, align 4, !tbaa !8
  store i32 %2, ptr %7, align 4, !tbaa !8
  store ptr %3, ptr %8, align 8, !tbaa !88
  %9 = load ptr, ptr %5, align 8, !tbaa !48
  %10 = load i32, ptr %6, align 4, !tbaa !8
  %11 = load i32, ptr %7, align 4, !tbaa !8
  %12 = load ptr, ptr %8, align 8, !tbaa !88
  %13 = call ptr @ggml_new_tensor_impl(ptr noundef %9, i32 noundef %10, i32 noundef %11, ptr noundef %12, ptr noundef null, i64 noundef 0)
  ret ptr %13
}

; Function Attrs: nounwind uwtable
define ptr @ggml_win_unpart(ptr noundef %0, ptr noundef %1, i32 noundef %2, i32 noundef %3, i32 noundef %4) #5 {
  %6 = alloca ptr, align 8
  %7 = alloca ptr, align 8
  %8 = alloca i32, align 4
  %9 = alloca i32, align 4
  %10 = alloca i32, align 4
  %11 = alloca [4 x i64], align 16
  %12 = alloca ptr, align 8
  %13 = alloca [1 x i32], align 4
  store ptr %0, ptr %6, align 8, !tbaa !48
  store ptr %1, ptr %7, align 8, !tbaa !54
  store i32 %2, ptr %8, align 4, !tbaa !8
  store i32 %3, ptr %9, align 4, !tbaa !8
  store i32 %4, ptr %10, align 4, !tbaa !8
  %14 = load ptr, ptr %7, align 8, !tbaa !54
  %15 = getelementptr inbounds nuw %struct.ggml_tensor, ptr %14, i32 0, i32 0
  %16 = load i32, ptr %15, align 8, !tbaa !56
  %17 = icmp eq i32 %16, 0
  br i1 %17, label %19, label %18

18:                                               ; preds = %5
  call void (ptr, i32, ptr, ...) @ggml_abort(ptr noundef @.str.12, i32 noundef 4558, ptr noundef @.str.13, ptr noundef @.str.90) #18
  unreachable

19:                                               ; preds = %5
  call void @llvm.lifetime.start.p0(i64 32, ptr %11) #14
  %20 = load ptr, ptr %7, align 8, !tbaa !54
  %21 = getelementptr inbounds nuw %struct.ggml_tensor, ptr %20, i32 0, i32 2
  %22 = getelementptr inbounds [4 x i64], ptr %21, i64 0, i64 0
  %23 = load i64, ptr %22, align 8, !tbaa !19
  store i64 %23, ptr %11, align 8, !tbaa !19
  %24 = getelementptr inbounds i64, ptr %11, i64 1
  %25 = load i32, ptr %8, align 4, !tbaa !8
  %26 = sext i32 %25 to i64
  store i64 %26, ptr %24, align 8, !tbaa !19
  %27 = getelementptr inbounds i64, ptr %11, i64 2
  %28 = load i32, ptr %9, align 4, !tbaa !8
  %29 = sext i32 %28 to i64
  store i64 %29, ptr %27, align 8, !tbaa !19
  %30 = getelementptr inbounds i64, ptr %11, i64 3
  store i64 1, ptr %30, align 8, !tbaa !19
  call void @llvm.lifetime.start.p0(i64 8, ptr %12) #14
  %31 = load ptr, ptr %6, align 8, !tbaa !48
  %32 = getelementptr inbounds [4 x i64], ptr %11, i64 0, i64 0
  %33 = call ptr @ggml_new_tensor(ptr noundef %31, i32 noundef 0, i32 noundef 3, ptr noundef %32)
  store ptr %33, ptr %12, align 8, !tbaa !54
  call void @llvm.lifetime.start.p0(i64 4, ptr %13) #14
  %34 = load i32, ptr %10, align 4, !tbaa !8
  store i32 %34, ptr %13, align 4, !tbaa !8
  %35 = load ptr, ptr %12, align 8, !tbaa !54
  %36 = getelementptr inbounds [1 x i32], ptr %13, i64 0, i64 0
  call void @ggml_set_op_params(ptr noundef %35, ptr noundef %36, i64 noundef 4)
  %37 = load ptr, ptr %12, align 8, !tbaa !54
  %38 = getelementptr inbounds nuw %struct.ggml_tensor, ptr %37, i32 0, i32 4
  store i32 66, ptr %38, align 8, !tbaa !68
  %39 = load ptr, ptr %7, align 8, !tbaa !54
  %40 = load ptr, ptr %12, align 8, !tbaa !54
  %41 = getelementptr inbounds nuw %struct.ggml_tensor, ptr %40, i32 0, i32 7
  %42 = getelementptr inbounds [10 x ptr], ptr %41, i64 0, i64 0
  store ptr %39, ptr %42, align 8, !tbaa !54
  %43 = load ptr, ptr %12, align 8, !tbaa !54
  call void @llvm.lifetime.end.p0(i64 4, ptr %13) #14
  call void @llvm.lifetime.end.p0(i64 8, ptr %12) #14
  call void @llvm.lifetime.end.p0(i64 32, ptr %11) #14
  ret ptr %43
}