; Function Attrs: nounwind uwtable
define noundef ptr @ggml_win_unpart(ptr noundef captures(none) %0, ptr noundef %1, i32 noundef %2, i32 noundef %3, i32 noundef %4) local_unnamed_addr #4 {
  %6 = alloca [4 x i64], align 16
  %7 = load i32, ptr %1, align 8, !tbaa !40
  %8 = icmp eq i32 %7, 0
  br i1 %8, label %10, label %9

9:                                                ; preds = %5
  tail call void (ptr, i32, ptr, ...) @ggml_abort(ptr noundef nonnull @.str.12, i32 noundef 4558, ptr noundef nonnull @.str.13, ptr noundef nonnull @.str.90) #47
  unreachable

10:                                               ; preds = %5
  call void @llvm.lifetime.start.p0(i64 32, ptr nonnull %6) #42
  %11 = getelementptr inbounds nuw i8, ptr %1, i64 16
  %12 = load i64, ptr %11, align 8, !tbaa !39
  store i64 %12, ptr %6, align 16, !tbaa !39
  %13 = getelementptr inbounds nuw i8, ptr %6, i64 8
  %14 = sext i32 %2 to i64
  store i64 %14, ptr %13, align 8, !tbaa !39
  %15 = getelementptr inbounds nuw i8, ptr %6, i64 16
  %16 = sext i32 %3 to i64
  store i64 %16, ptr %15, align 16, !tbaa !39
  %17 = getelementptr inbounds nuw i8, ptr %6, i64 24
  store i64 1, ptr %17, align 8, !tbaa !39
  %18 = call fastcc noundef ptr @ggml_new_tensor_impl(ptr noundef %0, i32 noundef 0, i32 noundef 3, ptr noundef nonnull readonly %6, ptr noundef null, i64 noundef 0)
  %.not.i = icmp eq ptr %18, null
  br i1 %.not.i, label %19, label %ggml_set_op_params.exit

19:                                               ; preds = %10
  tail call void (ptr, i32, ptr, ...) @ggml_abort(ptr noundef nonnull @.str.463, i32 noundef 112, ptr noundef nonnull @.str.13, ptr noundef nonnull @.str.464) #47
  unreachable

ggml_set_op_params.exit:                          ; preds = %10
  %20 = getelementptr inbounds nuw i8, ptr %18, i64 84
  store i32 %4, ptr %20, align 4
  %21 = getelementptr inbounds nuw i8, ptr %18, i64 80
  store i32 66, ptr %21, align 8, !tbaa !55
  %22 = getelementptr inbounds nuw i8, ptr %18, i64 152
  store ptr %1, ptr %22, align 8, !tbaa !81
  call void @llvm.lifetime.end.p0(i64 32, ptr nonnull %6) #42
  ret ptr %18
}